target datalayout = "e-m:e-p270:32:32-p271:32:32-p272:64:64-i64:64-i128:128-f80:128-n8:16:32:64-S128"
target triple = "x86_64-unknown-linux-gnu"

%"class.QuantLib::GFunctionFactory::GFunctionStandard" = type { %"class.QuantLib::GFunction", i32, double, i64 }
%"class.QuantLib::GFunction" = type { ptr }

; Function Attrs: mustprogress nounwind uwtable
define noundef double @_ZN8QuantLib16GFunctionFactory17GFunctionStandard15firstDerivativeEd(ptr noundef nonnull align 8 dereferenceable(32) %this, double noundef %x) unnamed_addr #1 align 2 {
entry:
  %this.addr = alloca ptr, align 8
  %x.addr = alloca double, align 8
  %n = alloca double, align 8
  %a = alloca double, align 8
  %AA = alloca double, align 8
  %B = alloca double, align 8
  %secNum = alloca double, align 8
  %secDen = alloca double, align 8
  %sec = alloca double, align 8
  store ptr %this, ptr %this.addr, align 8, !tbaa !3
  store double %x, ptr %x.addr, align 8, !tbaa !18
  %this1 = load ptr, ptr %this.addr, align 8
  call void @llvm.lifetime.start.p0(i64 8, ptr %n) #18
  %swapLength_ = getelementptr inbounds nuw %"class.QuantLib::GFunctionFactory::GFunctionStandard", ptr %this1, i32 0, i32 3
  %0 = load i64, ptr %swapLength_, align 8, !tbaa !121
  %conv = uitofp i64 %0 to double
  %q_ = getelementptr inbounds nuw %"class.QuantLib::GFunctionFactory::GFunctionStandard", ptr %this1, i32 0, i32 1
  %1 = load i32, ptr %q_, align 8, !tbaa !124
  %conv2 = sitofp i32 %1 to double
  %mul = fmul double %conv, %conv2
  store double %mul, ptr %n, align 8, !tbaa !18
  call void @llvm.lifetime.start.p0(i64 8, ptr %a) #18
  %2 = load double, ptr %x.addr, align 8, !tbaa !18
  %q_3 = getelementptr inbounds nuw %"class.QuantLib::GFunctionFactory::GFunctionStandard", ptr %this1, i32 0, i32 1
  %3 = load i32, ptr %q_3, align 8, !tbaa !124
  %conv4 = sitofp i32 %3 to double
  %div = fdiv double %2, %conv4
  %add = fadd double 1.000000e+00, %div
  store double %add, ptr %a, align 8, !tbaa !18
  call void @llvm.lifetime.start.p0(i64 8, ptr %AA) #18
  %4 = load double, ptr %a, align 8, !tbaa !18
  %delta_ = getelementptr inbounds nuw %"class.QuantLib::GFunctionFactory::GFunctionStandard", ptr %this1, i32 0, i32 2
  %5 = load double, ptr %delta_, align 8, !tbaa !125
  %q_5 = getelementptr inbounds nuw %"class.QuantLib::GFunctionFactory::GFunctionStandard", ptr %this1, i32 0, i32 1
  %6 = load i32, ptr %q_5, align 8, !tbaa !124
  %conv6 = sitofp i32 %6 to double
  %div7 = fdiv double %5, %conv6
  %7 = load double, ptr %x.addr, align 8, !tbaa !18
  %neg = fneg double %div7
  %8 = call double @llvm.fmuladd.f64(double %neg, double %7, double %4)
  store double %8, ptr %AA, align 8, !tbaa !18
  call void @llvm.lifetime.start.p0(i64 8, ptr %B) #18
  %9 = load double, ptr %a, align 8, !tbaa !18
  %10 = load double, ptr %n, align 8, !tbaa !18
  %delta_9 = getelementptr inbounds nuw %"class.QuantLib::GFunctionFactory::GFunctionStandard", ptr %this1, i32 0, i32 2
  %11 = load double, ptr %delta_9, align 8, !tbaa !125
  %sub = fsub double %10, %11
  %sub10 = fsub double %sub, 1.000000e+00
  %call = call double @pow(double noundef %9, double noundef %sub10) #18, !tbaa !32
  %12 = load double, ptr %a, align 8, !tbaa !18
  %13 = load double, ptr %n, align 8, !tbaa !18
  %call11 = call double @pow(double noundef %12, double noundef %13) #18, !tbaa !32
  %sub12 = fsub double %call11, 1.000000e+00
  %div13 = fdiv double %call, %sub12
  store double %div13, ptr %B, align 8, !tbaa !18
  call void @llvm.lifetime.start.p0(i64 8, ptr %secNum) #18
  %14 = load double, ptr %n, align 8, !tbaa !18
  %15 = load double, ptr %x.addr, align 8, !tbaa !18
  %mul14 = fmul double %14, %15
  %16 = load double, ptr %a, align 8, !tbaa !18
  %17 = load double, ptr %n, align 8, !tbaa !18
  %sub15 = fsub double %17, 1.000000e+00
  %call16 = call double @pow(double noundef %16, double noundef %sub15) #18, !tbaa !32
  %mul17 = fmul double %mul14, %call16
  store double %mul17, ptr %secNum, align 8, !tbaa !18
  call void @llvm.lifetime.start.p0(i64 8, ptr %secDen) #18
  %q_18 = getelementptr inbounds nuw %"class.QuantLib::GFunctionFactory::GFunctionStandard", ptr %this1, i32 0, i32 1
  %18 = load i32, ptr %q_18, align 8, !tbaa !124
  %conv19 = sitofp i32 %18 to double
  %19 = load double, ptr %a, align 8, !tbaa !18
  %delta_20 = getelementptr inbounds nuw %"class.QuantLib::GFunctionFactory::GFunctionStandard", ptr %this1, i32 0, i32 2
  %20 = load double, ptr %delta_20, align 8, !tbaa !125
  %call21 = call double @pow(double noundef %19, double noundef %20) #18, !tbaa !32
  %mul22 = fmul double %conv19, %call21
  %21 = load double, ptr %a, align 8, !tbaa !18
  %22 = load double, ptr %n, align 8, !tbaa !18
  %call23 = call double @pow(double noundef %21, double noundef %22) #18, !tbaa !32
  %sub24 = fsub double %call23, 1.000000e+00
  %mul25 = fmul double %mul22, %sub24
  %23 = load double, ptr %a, align 8, !tbaa !18
  %24 = load double, ptr %n, align 8, !tbaa !18
  %call26 = call double @pow(double noundef %23, double noundef %24) #18, !tbaa !32
  %sub27 = fsub double %call26, 1.000000e+00
  %mul28 = fmul double %mul25, %sub27
  store double %mul28, ptr %secDen, align 8, !tbaa !18
  call void @llvm.lifetime.start.p0(i64 8, ptr %sec) #18
  %25 = load double, ptr %secNum, align 8, !tbaa !18
  %26 = load double, ptr %secDen, align 8, !tbaa !18
  %div29 = fdiv double %25, %26
  store double %div29, ptr %sec, align 8, !tbaa !18
  %27 = load double, ptr %AA, align 8, !tbaa !18
  %28 = load double, ptr %B, align 8, !tbaa !18
  %29 = load double, ptr %sec, align 8, !tbaa !18
  %neg31 = fneg double %29
  %30 = call double @llvm.fmuladd.f64(double %27, double %28, double %neg31)
  call void @llvm.lifetime.end.p0(i64 8, ptr %sec) #18
  call void @llvm.lifetime.end.p0(i64 8, ptr %secDen) #18
  call void @llvm.lifetime.end.p0(i64 8, ptr %secNum) #18
  call void @llvm.lifetime.end.p0(i64 8, ptr %B) #18
  call void @llvm.lifetime.end.p0(i64 8, ptr %AA) #18
  call void @llvm.lifetime.end.p0(i64 8, ptr %a) #18
  call void @llvm.lifetime.end.p0(i64 8, ptr %n) #18
  ret double %30
}