; Function Attrs: mustprogress nofree nounwind willreturn memory(write, argmem: readwrite) uwtable
define noundef double @_ZN8QuantLib16GFunctionFactory17GFunctionStandard15firstDerivativeEd(ptr nocapture noundef nonnull readonly align 8 dereferenceable(32) %this, double noundef %x) unnamed_addr #20 align 2 {
entry:
  %swapLength_ = getelementptr inbounds nuw i8, ptr %this, i64 24
  %0 = load i64, ptr %swapLength_, align 8, !tbaa !136
  %conv = uitofp i64 %0 to double
  %q_ = getelementptr inbounds nuw i8, ptr %this, i64 8
  %1 = load i32, ptr %q_, align 8, !tbaa !132
  %conv2 = sitofp i32 %1 to double
  %mul = fmul double %conv, %conv2
  %div = fdiv double %x, %conv2
  %add = fadd double %div, 1.000000e+00
  %delta_ = getelementptr inbounds nuw i8, ptr %this, i64 16
  %2 = load double, ptr %delta_, align 8, !tbaa !135
  %3 = fneg double %2
  %neg = fdiv double %3, %conv2
  %4 = tail call double @llvm.fmuladd.f64(double %neg, double %x, double %add)
  %sub = fsub double %mul, %2
  %sub10 = fadd double %sub, -1.000000e+00
  %call = tail call double @pow(double noundef %add, double noundef %sub10) #35, !tbaa !58
  %call11 = tail call double @pow(double noundef %add, double noundef %mul) #35, !tbaa !58
  %sub12 = fadd double %call11, -1.000000e+00
  %div13 = fdiv double %call, %sub12
  %mul14 = fmul double %x, %mul
  %sub15 = fadd double %mul, -1.000000e+00
  %call16 = tail call double @pow(double noundef %add, double noundef %sub15) #35, !tbaa !58
  %5 = load i32, ptr %q_, align 8, !tbaa !132
  %conv19 = sitofp i32 %5 to double
  %call21 = tail call double @pow(double noundef %add, double noundef %2) #35, !tbaa !58
  %mul22 = fmul double %call21, %conv19
  %call23 = tail call double @pow(double noundef %add, double noundef %mul) #35, !tbaa !58
  %sub24 = fadd double %call23, -1.000000e+00
  %mul25 = fmul double %mul22, %sub24
  %call26 = tail call double @pow(double noundef %add, double noundef %mul) #35, !tbaa !58
  %sub27 = fadd double %call26, -1.000000e+00
  %mul28 = fmul double %mul25, %sub27
  %6 = fneg double %call16
  %7 = fmul double %mul14, %6
  %neg31 = fdiv double %7, %mul28
  %8 = tail call double @llvm.fmuladd.f64(double %4, double %div13, double %neg31)
  ret double %8
}